target datalayout = "e-m:e-p270:32:32-p271:32:32-p272:64:64-i64:64-i128:128-f80:128-n8:16:32:64-S128"
target triple = "x86_64-pc-linux-gnu"

@.str.8 = private unnamed_addr constant [22 x i32] [i32 76, i32 97, i32 98, i32 32, i32 105, i32 100, i32 101, i32 110, i32 116, i32 105, i32 116, i32 121, i32 32, i32 98, i32 117, i32 105, i32 108, i32 116, i32 45, i32 105, i32 110, i32 0], align 4

; Function Attrs: nounwind uwtable
define hidden ptr @cmsCreateLab2ProfileTHR(ptr noundef %0, ptr noundef %1) #0 {
  %3 = alloca ptr, align 8
  %4 = alloca ptr, align 8
  %5 = alloca ptr, align 8
  %6 = alloca ptr, align 8
  %7 = alloca ptr, align 8
  store ptr %0, ptr %4, align 8
  store ptr %1, ptr %5, align 8
  store ptr null, ptr %7, align 8
  %8 = load ptr, ptr %4, align 8
  %9 = load ptr, ptr %5, align 8
  %10 = icmp eq ptr %9, null
  br i1 %10, label %11, label %13

11:                                               ; preds = %2
  %12 = call ptr @cmsD50_xyY()
  br label %15

13:                                               ; preds = %2
  %14 = load ptr, ptr %5, align 8
  br label %15

15:                                               ; preds = %13, %11
  %16 = phi ptr [ %12, %11 ], [ %14, %13 ]
  %17 = call ptr @cmsCreateRGBProfileTHR(ptr noundef %8, ptr noundef %16, ptr noundef null, ptr noundef null)
  store ptr %17, ptr %6, align 8
  %18 = load ptr, ptr %6, align 8
  %19 = icmp eq ptr %18, null
  br i1 %19, label %20, label %21

20:                                               ; preds = %15
  store ptr null, ptr %3, align 8
  br label %64

21:                                               ; preds = %15
  %22 = load ptr, ptr %6, align 8
  call void @cmsSetProfileVersion(ptr noundef %22, double noundef 2.100000e+00)
  %23 = load ptr, ptr %6, align 8
  call void @cmsSetDeviceClass(ptr noundef %23, i32 noundef 1633842036)
  %24 = load ptr, ptr %6, align 8
  call void @cmsSetColorSpace(ptr noundef %24, i32 noundef 1281450528)
  %25 = load ptr, ptr %6, align 8
  call void @cmsSetPCS(ptr noundef %25, i32 noundef 1281450528)
  %26 = load ptr, ptr %6, align 8
  %27 = call i32 @SetTextTags(ptr noundef %26, ptr noundef @.str.8)
  %28 = icmp ne i32 %27, 0
  br i1 %28, label %30, label %29

29:                                               ; preds = %21
  store ptr null, ptr %3, align 8
  br label %64

30:                                               ; preds = %21
  %31 = load ptr, ptr %4, align 8
  %32 = call ptr @cmsPipelineAlloc(ptr noundef %31, i32 noundef 3, i32 noundef 3)
  store ptr %32, ptr %7, align 8
  %33 = load ptr, ptr %7, align 8
  %34 = icmp eq ptr %33, null
  br i1 %34, label %35, label %36

35:                                               ; preds = %30
  br label %52

36:                                               ; preds = %30
  %37 = load ptr, ptr %7, align 8
  %38 = load ptr, ptr %4, align 8
  %39 = call ptr @_cmsStageAllocIdentityCLut(ptr noundef %38, i32 noundef 3)
  %40 = call i32 @cmsPipelineInsertStage(ptr noundef %37, i32 noundef 0, ptr noundef %39)
  %41 = icmp ne i32 %40, 0
  br i1 %41, label %43, label %42

42:                                               ; preds = %36
  br label %52

43:                                               ; preds = %36
  %44 = load ptr, ptr %6, align 8
  %45 = load ptr, ptr %7, align 8
  %46 = call i32 @cmsWriteTag(ptr noundef %44, i32 noundef 1093812784, ptr noundef %45)
  %47 = icmp ne i32 %46, 0
  br i1 %47, label %49, label %48

48:                                               ; preds = %43
  br label %52

49:                                               ; preds = %43
  %50 = load ptr, ptr %7, align 8
  call void @cmsPipelineFree(ptr noundef %50)
  %51 = load ptr, ptr %6, align 8
  store ptr %51, ptr %3, align 8
  br label %64

52:                                               ; preds = %48, %42, %35
  %53 = load ptr, ptr %7, align 8
  %54 = icmp ne ptr %53, null
  br i1 %54, label %55, label %57

55:                                               ; preds = %52
  %56 = load ptr, ptr %7, align 8
  call void @cmsPipelineFree(ptr noundef %56)
  br label %57

57:                                               ; preds = %55, %52
  %58 = load ptr, ptr %6, align 8
  %59 = icmp ne ptr %58, null
  br i1 %59, label %60, label %63

60:                                               ; preds = %57
  %61 = load ptr, ptr %6, align 8
  %62 = call i32 @cmsCloseProfile(ptr noundef %61)
  br label %63

63:                                               ; preds = %60, %57
  store ptr null, ptr %3, align 8
  br label %64

64:                                               ; preds = %63, %49, %29, %20
  %65 = load ptr, ptr %3, align 8
  ret ptr %65
}