; Function Attrs: nounwind uwtable
define hidden ptr @cmsCreateLab2ProfileTHR(ptr noundef %0, ptr noundef %1) local_unnamed_addr #0 {
  %3 = icmp eq ptr %1, null
  br i1 %3, label %4, label %6

4:                                                ; preds = %2
  %5 = tail call ptr @cmsD50_xyY() #7
  br label %6

6:                                                ; preds = %2, %4
  %7 = phi ptr [ %5, %4 ], [ %1, %2 ]
  %8 = tail call ptr @cmsCreateRGBProfileTHR(ptr noundef %0, ptr noundef %7, ptr noundef null, ptr noundef null)
  %9 = icmp eq ptr %8, null
  br i1 %9, label %23, label %10

10:                                               ; preds = %6
  tail call void @cmsSetProfileVersion(ptr noundef nonnull %8, double noundef 2.100000e+00) #7
  tail call void @cmsSetDeviceClass(ptr noundef nonnull %8, i32 noundef 1633842036) #7
  tail call void @cmsSetColorSpace(ptr noundef nonnull %8, i32 noundef 1281450528) #7
  tail call void @cmsSetPCS(ptr noundef nonnull %8, i32 noundef 1281450528) #7
  %11 = tail call fastcc i32 @SetTextTags(ptr noundef nonnull %8, ptr noundef nonnull @.str.8)
  %.not = icmp eq i32 %11, 0
  br i1 %.not, label %23, label %12

12:                                               ; preds = %10
  %13 = tail call ptr @cmsPipelineAlloc(ptr noundef %0, i32 noundef 3, i32 noundef 3) #7
  %cond = icmp eq ptr %13, null
  br i1 %cond, label %21, label %14

14:                                               ; preds = %12
  %15 = tail call ptr @_cmsStageAllocIdentityCLut(ptr noundef %0, i32 noundef 3) #7
  %16 = tail call i32 @cmsPipelineInsertStage(ptr noundef nonnull %13, i32 noundef 0, ptr noundef %15) #7
  %.not25 = icmp eq i32 %16, 0
  br i1 %.not25, label %20, label %17

17:                                               ; preds = %14
  %18 = tail call i32 @cmsWriteTag(ptr noundef nonnull %8, i32 noundef 1093812784, ptr noundef nonnull %13) #7
  %.not26 = icmp eq i32 %18, 0
  br i1 %.not26, label %20, label %19

19:                                               ; preds = %17
  tail call void @cmsPipelineFree(ptr noundef nonnull %13) #7
  br label %23

20:                                               ; preds = %14, %17
  tail call void @cmsPipelineFree(ptr noundef nonnull %13) #7
  br label %21

21:                                               ; preds = %12, %20
  %22 = tail call i32 @cmsCloseProfile(ptr noundef nonnull %8) #7
  br label %23

23:                                               ; preds = %10, %6, %21, %19
  %.0 = phi ptr [ null, %21 ], [ %8, %19 ], [ null, %6 ], [ null, %10 ]
  ret ptr %.0
}